; Function Attrs: mustprogress nounwind uwtable
define hidden void @_ZN19G1DirtyCardQueueSet11flush_queueER16G1DirtyCardQueue(ptr noundef nonnull align 8 dereferenceable(928) %0, ptr noundef nonnull align 8 dereferenceable(24) %1) local_unnamed_addr #0 align 2 {
  %3 = getelementptr inbounds i8, ptr %1, i64 8
  %4 = load ptr, ptr %3, align 8
  %.not = icmp eq ptr %4, null
  br i1 %.not, label %15, label %5

5:                                                ; preds = %2
  %6 = getelementptr inbounds i8, ptr %1, i64 16
  %7 = load ptr, ptr %6, align 8
  %8 = tail call noundef i64 @_ZNK8PtrQueue16current_capacityEv(ptr noundef nonnull align 8 dereferenceable(16) %1) #15
  %9 = load i64, ptr %1, align 8
  %10 = lshr i64 %9, 3
  %11 = sub i64 %8, %10
  %12 = getelementptr inbounds i8, ptr %7, i64 32
  %13 = load i64, ptr %12, align 8
  %14 = add i64 %11, %13
  store i64 %14, ptr %12, align 8
  br label %15

15:                                               ; preds = %5, %2
  tail call void @_ZN11PtrQueueSet11flush_queueER8PtrQueue(ptr noundef nonnull align 8 dereferenceable(16) %0, ptr noundef nonnull align 8 dereferenceable(16) %1) #15
  ret void
}